; Function Attrs: mustprogress nofree norecurse nounwind willreturn memory(readwrite, inaccessiblemem: none) uwtable
define void @_ZNK5boost15program_options18option_description8semanticEv(ptr dead_on_unwind noalias nocapture writable writeonly sret(%"class.boost::shared_ptr") align 8 %0, ptr nocapture noundef nonnull readonly align 8 dereferenceable(112) %1) local_unnamed_addr #11 align 2 personality ptr @__gxx_personality_v0 {
  %3 = getelementptr inbounds nuw i8, ptr %1, i64 96
  %4 = load ptr, ptr %3, align 8, !tbaa !14
  store ptr %4, ptr %0, align 8, !tbaa !14
  %5 = getelementptr inbounds nuw i8, ptr %0, i64 8
  %6 = getelementptr inbounds nuw i8, ptr %1, i64 104
  %7 = load ptr, ptr %6, align 8, !tbaa !17
  store ptr %7, ptr %5, align 8, !tbaa !17
  %.not.i.i = icmp eq ptr %7, null
  br i1 %.not.i.i, label %_ZN5boost10shared_ptrIKNS_15program_options14value_semanticEEC2ERKS4_.exit, label %8

8:                                                ; preds = %2
  %9 = getelementptr inbounds nuw i8, ptr %7, i64 8
  %10 = atomicrmw add ptr %9, i32 1 monotonic, align 4
  br label %_ZN5boost10shared_ptrIKNS_15program_options14value_semanticEEC2ERKS4_.exit

_ZN5boost10shared_ptrIKNS_15program_options14value_semanticEEC2ERKS4_.exit: ; preds = %2, %8
  ret void
}